; Function Attrs: mustprogress uwtable
define hidden void @_ZN4ncnn18MultiHeadAttentionC2Ev(ptr noundef nonnull align 8 dereferenceable(1036) %0) unnamed_addr #1 align 2 personality ptr @__gxx_personality_v0 {
  tail call void @_ZN4ncnn5LayerC2Ev(ptr noundef nonnull align 8 dereferenceable(208) %0)
  store ptr getelementptr inbounds nuw inrange(-16, 80) (i8, ptr @_ZTVN4ncnn18MultiHeadAttentionE, i64 16), ptr %0, align 8, !tbaa !4
  %2 = getelementptr inbounds nuw i8, ptr %0, i64 240
  %3 = getelementptr inbounds nuw i8, ptr %0, i64 272
  %4 = getelementptr inbounds nuw i8, ptr %0, i64 304
  %5 = getelementptr inbounds nuw i8, ptr %0, i64 344
  %6 = getelementptr inbounds nuw i8, ptr %0, i64 376
  %7 = getelementptr inbounds nuw i8, ptr %0, i64 416
  %8 = getelementptr inbounds nuw i8, ptr %0, i64 448
  %9 = getelementptr inbounds nuw i8, ptr %0, i64 488
  %10 = getelementptr inbounds nuw i8, ptr %0, i64 520
  %11 = getelementptr inbounds nuw i8, ptr %0, i64 560
  %12 = getelementptr inbounds nuw i8, ptr %0, i64 592
  %13 = getelementptr inbounds nuw i8, ptr %0, i64 632
  %14 = getelementptr inbounds nuw i8, ptr %0, i64 664
  %15 = getelementptr inbounds nuw i8, ptr %0, i64 704
  %16 = getelementptr inbounds nuw i8, ptr %0, i64 736
  %17 = getelementptr inbounds nuw i8, ptr %0, i64 776
  %18 = getelementptr inbounds nuw i8, ptr %0, i64 808
  %19 = getelementptr inbounds nuw i8, ptr %0, i64 848
  %20 = getelementptr inbounds nuw i8, ptr %0, i64 880
  %21 = getelementptr inbounds nuw i8, ptr %0, i64 920
  %22 = getelementptr inbounds nuw i8, ptr %0, i64 952
  %23 = getelementptr inbounds nuw i8, ptr %0, i64 992
  %24 = getelementptr inbounds nuw i8, ptr %0, i64 1024
  store i64 0, ptr %24, align 8, !tbaa !17
  tail call void @llvm.memset.p0.i64(ptr noundef nonnull align 8 dereferenceable(28) %2, i8 0, i64 28, i1 false)
  tail call void @llvm.memset.p0.i64(ptr noundef nonnull align 8 dereferenceable(28) %3, i8 0, i64 28, i1 false)
  tail call void @llvm.memset.p0.i64(ptr noundef nonnull align 8 dereferenceable(36) %4, i8 0, i64 36, i1 false)
  tail call void @llvm.memset.p0.i64(ptr noundef nonnull align 8 dereferenceable(28) %5, i8 0, i64 28, i1 false)
  tail call void @llvm.memset.p0.i64(ptr noundef nonnull align 8 dereferenceable(36) %6, i8 0, i64 36, i1 false)
  tail call void @llvm.memset.p0.i64(ptr noundef nonnull align 8 dereferenceable(28) %7, i8 0, i64 28, i1 false)
  tail call void @llvm.memset.p0.i64(ptr noundef nonnull align 8 dereferenceable(36) %8, i8 0, i64 36, i1 false)
  tail call void @llvm.memset.p0.i64(ptr noundef nonnull align 8 dereferenceable(28) %9, i8 0, i64 28, i1 false)
  tail call void @llvm.memset.p0.i64(ptr noundef nonnull align 8 dereferenceable(36) %10, i8 0, i64 36, i1 false)
  tail call void @llvm.memset.p0.i64(ptr noundef nonnull align 8 dereferenceable(28) %11, i8 0, i64 28, i1 false)
  tail call void @llvm.memset.p0.i64(ptr noundef nonnull align 8 dereferenceable(36) %12, i8 0, i64 36, i1 false)
  tail call void @llvm.memset.p0.i64(ptr noundef nonnull align 8 dereferenceable(28) %13, i8 0, i64 28, i1 false)
  tail call void @llvm.memset.p0.i64(ptr noundef nonnull align 8 dereferenceable(36) %14, i8 0, i64 36, i1 false)
  tail call void @llvm.memset.p0.i64(ptr noundef nonnull align 8 dereferenceable(28) %15, i8 0, i64 28, i1 false)
  tail call void @llvm.memset.p0.i64(ptr noundef nonnull align 8 dereferenceable(36) %16, i8 0, i64 36, i1 false)
  tail call void @llvm.memset.p0.i64(ptr noundef nonnull align 8 dereferenceable(28) %17, i8 0, i64 28, i1 false)
  tail call void @llvm.memset.p0.i64(ptr noundef nonnull align 8 dereferenceable(36) %18, i8 0, i64 36, i1 false)
  tail call void @llvm.memset.p0.i64(ptr noundef nonnull align 8 dereferenceable(28) %19, i8 0, i64 28, i1 false)
  tail call void @llvm.memset.p0.i64(ptr noundef nonnull align 8 dereferenceable(36) %20, i8 0, i64 36, i1 false)
  tail call void @llvm.memset.p0.i64(ptr noundef nonnull align 8 dereferenceable(28) %21, i8 0, i64 28, i1 false)
  tail call void @llvm.memset.p0.i64(ptr noundef nonnull align 8 dereferenceable(36) %22, i8 0, i64 36, i1 false)
  tail call void @llvm.memset.p0.i64(ptr noundef nonnull align 8 dereferenceable(28) %23, i8 0, i64 28, i1 false)
  ret void
}